target datalayout = "e-m:e-p270:32:32-p271:32:32-p272:64:64-i64:64-i128:128-f80:128-n8:16:32:64-S128"
target triple = "x86_64-pc-linux-gnu"

%struct._lv_vector_path_t = type { i32, %struct._lv_array_t, %struct._lv_array_t }
%struct._lv_array_t = type { ptr, i32, i32, i32, i8 }

; Function Attrs: nounwind uwtable
define void @lv_vector_path_move_to(ptr noundef %0, ptr noundef %1) #0 {
  %3 = alloca ptr, align 8
  %4 = alloca ptr, align 8
  %5 = alloca i32, align 4
  store ptr %0, ptr %3, align 8, !tbaa !3
  store ptr %1, ptr %4, align 8, !tbaa !3
  br label %6

6:                                                ; preds = %2
  %7 = load ptr, ptr %3, align 8, !tbaa !3
  %8 = getelementptr inbounds nuw %struct._lv_vector_path_t, ptr %7, i32 0, i32 1
  %9 = call i32 @lv_array_size(ptr noundef %8)
  %10 = add i32 %9, 1
  %11 = load ptr, ptr %3, align 8, !tbaa !3
  %12 = getelementptr inbounds nuw %struct._lv_vector_path_t, ptr %11, i32 0, i32 1
  %13 = call i32 @lv_array_capacity(ptr noundef %12)
  %14 = icmp ugt i32 %10, %13
  br i1 %14, label %15, label %24

15:                                               ; preds = %6
  %16 = load ptr, ptr %3, align 8, !tbaa !3
  %17 = getelementptr inbounds nuw %struct._lv_vector_path_t, ptr %16, i32 0, i32 1
  %18 = load ptr, ptr %3, align 8, !tbaa !3
  %19 = getelementptr inbounds nuw %struct._lv_vector_path_t, ptr %18, i32 0, i32 1
  %20 = getelementptr inbounds nuw %struct._lv_array_t, ptr %19, i32 0, i32 2
  %21 = load i32, ptr %20, align 4, !tbaa !22
  %22 = shl i32 %21, 1
  %23 = call zeroext i1 @lv_array_resize(ptr noundef %17, i32 noundef %22)
  br label %24

24:                                               ; preds = %15, %6
  %25 = load ptr, ptr %3, align 8, !tbaa !3
  %26 = getelementptr inbounds nuw %struct._lv_vector_path_t, ptr %25, i32 0, i32 2
  %27 = call i32 @lv_array_size(ptr noundef %26)
  %28 = add i32 %27, 1
  %29 = load ptr, ptr %3, align 8, !tbaa !3
  %30 = getelementptr inbounds nuw %struct._lv_vector_path_t, ptr %29, i32 0, i32 2
  %31 = call i32 @lv_array_capacity(ptr noundef %30)
  %32 = icmp ugt i32 %28, %31
  br i1 %32, label %33, label %42

33:                                               ; preds = %24
  %34 = load ptr, ptr %3, align 8, !tbaa !3
  %35 = getelementptr inbounds nuw %struct._lv_vector_path_t, ptr %34, i32 0, i32 2
  %36 = load ptr, ptr %3, align 8, !tbaa !3
  %37 = getelementptr inbounds nuw %struct._lv_vector_path_t, ptr %36, i32 0, i32 2
  %38 = getelementptr inbounds nuw %struct._lv_array_t, ptr %37, i32 0, i32 2
  %39 = load i32, ptr %38, align 4, !tbaa !23
  %40 = shl i32 %39, 1
  %41 = call zeroext i1 @lv_array_resize(ptr noundef %35, i32 noundef %40)
  br label %42

42:                                               ; preds = %33, %24
  br label %43

43:                                               ; preds = %42
  call void @llvm.lifetime.start.p0(i64 4, ptr %5) #7
  store i32 0, ptr %5, align 4, !tbaa !12
  %44 = load ptr, ptr %3, align 8, !tbaa !3
  %45 = getelementptr inbounds nuw %struct._lv_vector_path_t, ptr %44, i32 0, i32 1
  %46 = call i32 @lv_array_push_back(ptr noundef %45, ptr noundef %5)
  %47 = load ptr, ptr %3, align 8, !tbaa !3
  %48 = getelementptr inbounds nuw %struct._lv_vector_path_t, ptr %47, i32 0, i32 2
  %49 = load ptr, ptr %4, align 8, !tbaa !3
  %50 = call i32 @lv_array_push_back(ptr noundef %48, ptr noundef %49)
  call void @llvm.lifetime.end.p0(i64 4, ptr %5) #7
  ret void
}