; Function Attrs: nounwind uwtable
define void @lv_vector_path_move_to(ptr noundef %0, ptr noundef %1) local_unnamed_addr #3 {
  %3 = alloca i32, align 4
  %4 = getelementptr inbounds nuw i8, ptr %0, i64 8
  %5 = tail call i32 @lv_array_size(ptr noundef nonnull %4) #9
  %6 = add i32 %5, 1
  %7 = tail call i32 @lv_array_capacity(ptr noundef nonnull %4) #9
  %8 = icmp ugt i32 %6, %7
  br i1 %8, label %9, label %14

9:                                                ; preds = %2
  %10 = getelementptr inbounds nuw i8, ptr %0, i64 20
  %11 = load i32, ptr %10, align 4, !tbaa !18
  %12 = shl i32 %11, 1
  %13 = tail call zeroext i1 @lv_array_resize(ptr noundef nonnull %4, i32 noundef %12) #9
  br label %14

14:                                               ; preds = %9, %2
  %15 = getelementptr inbounds nuw i8, ptr %0, i64 32
  %16 = tail call i32 @lv_array_size(ptr noundef nonnull %15) #9
  %17 = add i32 %16, 1
  %18 = tail call i32 @lv_array_capacity(ptr noundef nonnull %15) #9
  %19 = icmp ugt i32 %17, %18
  br i1 %19, label %20, label %25

20:                                               ; preds = %14
  %21 = getelementptr inbounds nuw i8, ptr %0, i64 44
  %22 = load i32, ptr %21, align 4, !tbaa !19
  %23 = shl i32 %22, 1
  %24 = tail call zeroext i1 @lv_array_resize(ptr noundef nonnull %15, i32 noundef %23) #9
  br label %25

25:                                               ; preds = %14, %20
  call void @llvm.lifetime.start.p0(i64 4, ptr nonnull %3) #9
  store i32 0, ptr %3, align 4, !tbaa !20
  %26 = call i32 @lv_array_push_back(ptr noundef nonnull %4, ptr noundef nonnull %3) #9
  %27 = call i32 @lv_array_push_back(ptr noundef nonnull %15, ptr noundef %1) #9
  call void @llvm.lifetime.end.p0(i64 4, ptr nonnull %3) #9
  ret void
}